                Time          Cycles PC       Instr    Mnemonic
                 221               7 00000000 00002003 lw               x0, 0(x0)            PA:00000000
                 241               8 00000004 00002003 lw               x0, 0(x0)            PA:00000000
                 261               9 00000008 00002003 lw               x0, 0(x0)            PA:00000000
                 281              10 0000000c 00002003 lw               x0, 0(x0)            PA:00000000
                 301              11 00000010 00002003 lw               x0, 0(x0)            PA:00000000
                 321              12 00000014 00002003 lw               x0, 0(x0)            PA:00000000
                 341              13 00000018 00002003 lw               x0, 0(x0)            PA:00000000
                 361              14 0000001c 00002003 lw               x0, 0(x0)            PA:00000000
                 381              15 00000020 00002003 lw               x0, 0(x0)            PA:00000000
                 401              16 00000024 00002003 lw               x0, 0(x0)            PA:00000000
                 421              17 00000028 00002003 lw               x0, 0(x0)            PA:00000000
                 441              18 0000002c 00002003 lw               x0, 0(x0)            PA:00000000
                 461              19 00000030 00002003 lw               x0, 0(x0)            PA:00000000
                 481              20 00000034 00002003 lw               x0, 0(x0)            PA:00000000
                 501              21 00000038 00002003 lw               x0, 0(x0)            PA:00000000
                 521              22 0000003c 00002003 lw               x0, 0(x0)            PA:00000000
                 541              23 00000040 00002003 lw               x0, 0(x0)            PA:00000000
                 561              24 00000044 00002003 lw               x0, 0(x0)            PA:00000000
                 581              25 00000048 00002003 lw               x0, 0(x0)            PA:00000000
                 601              26 0000004c 00002003 lw               x0, 0(x0)            PA:00000000
                 621              27 00000050 00002003 lw               x0, 0(x0)            PA:00000000
                 641              28 00000054 00002003 lw               x0, 0(x0)            PA:00000000
                 661              29 00000058 00002003 lw               x0, 0(x0)            PA:00000000
                 681              30 0000005c 00002003 lw               x0, 0(x0)            PA:00000000
                 701              31 00000060 00002003 lw               x0, 0(x0)            PA:00000000
                 721              32 00000064 00002003 lw               x0, 0(x0)            PA:00000000
                 741              33 00000068 00002003 lw               x0, 0(x0)            PA:00000000
                 761              34 0000006c 00002003 lw               x0, 0(x0)            PA:00000000
                 781              35 00000070 00002003 lw               x0, 0(x0)            PA:00000000
                 801              36 00000074 00002003 lw               x0, 0(x0)            PA:00000000
                 821              37 00000078 00002003 lw               x0, 0(x0)            PA:00000000
                 841              38 0000007c 00002003 lw               x0, 0(x0)            PA:00000000
                 861              39 00000080 00002003 lw               x0, 0(x0)            PA:00000000
                 881              40 00000084 00002003 lw               x0, 0(x0)            PA:00000000
                 901              41 00000088 00002003 lw               x0, 0(x0)            PA:00000000
                 921              42 0000008c 00002003 lw               x0, 0(x0)            PA:00000000
                 941              43 00000090 00002003 lw               x0, 0(x0)            PA:00000000
                 961              44 00000094 00002003 lw               x0, 0(x0)            PA:00000000
                 981              45 00000098 00002003 lw               x0, 0(x0)            PA:00000000
                1001              46 0000009c 1215356f jal              x10, 342304         x10=000000a0
                1041              48 000539bc 00a02023 sw               x10, 0(x0)          x10:000000a0  PA:00000000
                1061              49 000539c0 00a02023 sw               x10, 0(x0)          x10:000000a0  PA:00000000
                1081              50 000539c4 00a02023 sw               x10, 0(x0)          x10:000000a0  PA:00000000
                1101              51 000539c8 00a02023 sw               x10, 0(x0)          x10:000000a0  PA:00000000
                1121              52 000539cc 00a02023 sw               x10, 0(x0)          x10:000000a0  PA:00000000
                1141              53 000539d0 00a02023 sw               x10, 0(x0)          x10:000000a0  PA:00000000
                1161              54 000539d4 00a02023 sw               x10, 0(x0)          x10:000000a0  PA:00000000
                1181              55 000539d8 00a02023 sw               x10, 0(x0)          x10:000000a0  PA:00000000
                1201              56 000539dc 00a02023 sw               x10, 0(x0)          x10:000000a0  PA:00000000
                1221              57 000539e0 00a02023 sw               x10, 0(x0)          x10:000000a0  PA:00000000
                1241              58 000539e4 00a02023 sw               x10, 0(x0)          x10:000000a0  PA:00000000
                1261              59 000539e8 00a02023 sw               x10, 0(x0)          x10:000000a0  PA:00000000
                1281              60 000539ec 00a02023 sw               x10, 0(x0)          x10:000000a0  PA:00000000
                1301              61 000539f0 00a02023 sw               x10, 0(x0)          x10:000000a0  PA:00000000
                1321              62 000539f4 00a02023 sw               x10, 0(x0)          x10:000000a0  PA:00000000
                1341              63 000539f8 00a02023 sw               x10, 0(x0)          x10:000000a0  PA:00000000
                1361              64 000539fc 00a02023 sw               x10, 0(x0)          x10:000000a0  PA:00000000
                1381              65 00053a00 00a02023 sw               x10, 0(x0)          x10:000000a0  PA:00000000
                1401              66 00053a04 00a02023 sw               x10, 0(x0)          x10:000000a0
                1541               3 00000000 00a02023 sw               x10, 0(x0)          x10:00000000  PA:00000000
                1561               4 00000004 00a02023 sw               x10, 0(x0)          x10:00000000  PA:00000000
                1581               5 00000008 00a02023 sw               x10, 0(x0)          x10:00000000  PA:00000000
                1601               6 0000000c 00002003 lw               x0, 0(x0)            PA:00000000
                1621               7 00000010 00002003 lw               x0, 0(x0)            PA:00000000
                1641               8 00000014 00002003 lw               x0, 0(x0)            PA:00000000
                1661               9 00000018 00002003 lw               x0, 0(x0)            PA:00000000
                1681              10 0000001c 00002003 lw               x0, 0(x0)            PA:00000000
                1701              11 00000020 00002003 lw               x0, 0(x0)            PA:00000000
                1721              12 00000024 00002003 lw               x0, 0(x0)            PA:00000000
                1741              13 00000028 00002003 lw               x0, 0(x0)            PA:00000000
                1761              14 0000002c 00002003 lw               x0, 0(x0)            PA:00000000
                1781              15 00000030 00002003 lw               x0, 0(x0)            PA:00000000
                1801              16 00000034 00002003 lw               x0, 0(x0)            PA:00000000
                1821              17 00000038 00002003 lw               x0, 0(x0)            PA:00000000
                1841              18 0000003c 00002003 lw               x0, 0(x0)            PA:00000000
                1861              19 00000040 00002003 lw               x0, 0(x0)            PA:00000000
                1881              20 00000044 00002003 lw               x0, 0(x0)            PA:00000000
                1901              21 00000048 00002003 lw               x0, 0(x0)            PA:00000000
                1921              22 0000004c 00002003 lw               x0, 0(x0)            PA:00000000
                1941              23 00000050 00002003 lw               x0, 0(x0)            PA:00000000
                1961              24 00000054 00002003 lw               x0, 0(x0)            PA:00000000
                1981              25 00000058 00002003 lw               x0, 0(x0)            PA:00000000
                2001              26 0000005c 00002003 lw               x0, 0(x0)            PA:00000000
                2021              27 00000060 00002003 lw               x0, 0(x0)            PA:00000000
                2041              28 00000064 00002003 lw               x0, 0(x0)            PA:00000000
                2061              29 00000068 00002003 lw               x0, 0(x0)            PA:00000000
                2081              30 0000006c 00002003 lw               x0, 0(x0)            PA:00000000
                2101              31 00000070 00002003 lw               x0, 0(x0)            PA:00000000
                2121              32 00000074 00002003 lw               x0, 0(x0)            PA:00000000
                2141              33 00000078 00002003 lw               x0, 0(x0)            PA:00000000
                2161              34 0000007c 00002003 lw               x0, 0(x0)            PA:00000000
                2181              35 00000080 00002003 lw               x0, 0(x0)            PA:00000000
                2201              36 00000084 00002003 lw               x0, 0(x0)            PA:00000000
                2221              37 00000088 00002003 lw               x0, 0(x0)            PA:00000000
                2241              38 0000008c 00002003 lw               x0, 0(x0)            PA:00000000
                2261              39 00000090 00002003 lw               x0, 0(x0)            PA:00000000
                2281              40 00000094 00002003 lw               x0, 0(x0)            PA:00000000
                2301              41 00000098 00002003 lw               x0, 0(x0)            PA:00000000
                2321              42 0000009c 00002003 lw               x0, 0(x0)            PA:00000000
                2341              43 000000a0 00002003 lw               x0, 0(x0)            PA:00000000
                2361              44 000000a4 00002003 lw               x0, 0(x0)            PA:00000000
                2381              45 000000a8 00002003 lw               x0, 0(x0)            PA:00000000
                2401              46 000000ac 00f3e36f jal              x6, 256014           x6=000000b0
                2441              48 0003e8ba 00c10413 addi             x8, x2, 12           x8=0000000c  x2:00000000
                2461              49 0003e8bc 00602023 sw               x6, 0(x0)            x6:000000b0  PA:00000000
                2481              50 0003e8c0 00602023 sw               x6, 0(x0)            x6:000000b0  PA:00000000
                2501              51 0003e8c4 00602023 sw               x6, 0(x0)            x6:000000b0  PA:00000000
                2521              52 0003e8c8 00602023 sw               x6, 0(x0)            x6:000000b0  PA:00000000
                2541              53 0003e8cc 00602023 sw               x6, 0(x0)            x6:000000b0  PA:00000000
                2561              54 0003e8d0 00602023 sw               x6, 0(x0)            x6:000000b0  PA:00000000
                2581              55 0003e8d4 00602023 sw               x6, 0(x0)            x6:000000b0  PA:00000000
                2601              56 0003e8d8 00602023 sw               x6, 0(x0)            x6:000000b0  PA:00000000
                2621              57 0003e8dc 00602023 sw               x6, 0(x0)            x6:000000b0  PA:00000000
                2641              58 0003e8e0 00602023 sw               x6, 0(x0)            x6:000000b0  PA:00000000
                2661              59 0003e8e4 00602023 sw               x6, 0(x0)            x6:000000b0  PA:00000000
                2681              60 0003e8e8 00602023 sw               x6, 0(x0)            x6:000000b0  PA:00000000
                2701              61 0003e8ec 00602023 sw               x6, 0(x0)            x6:000000b0  PA:00000000
                2721              62 0003e8f0 00602023 sw               x6, 0(x0)            x6:000000b0  PA:00000000
                2741              63 0003e8f4 00602023 sw               x6, 0(x0)            x6:000000b0  PA:00000000
                2761              64 0003e8f8 00602023 sw               x6, 0(x0)            x6:000000b0  PA:00000000
                2781              65 0003e8fc 00602023 sw               x6, 0(x0)            x6:000000b0  PA:00000000
                2801              66 0003e900 00602023 sw               x6, 0(x0)            x6:000000b0
                2941               3 00000000 00602023 sw               x6, 0(x0)            x6:00000000  PA:00000000
                2961               4 00000004 00602023 sw               x6, 0(x0)            x6:00000000  PA:00000000
                2981               5 00000008 00602023 sw               x6, 0(x0)            x6:00000000  PA:00000000
                3001               6 0000000c 00002003 lw               x0, 0(x0)            PA:00000000
                3021               7 00000010 00002003 lw               x0, 0(x0)            PA:00000000
                3041               8 00000014 00002003 lw               x0, 0(x0)            PA:00000000
                3061               9 00000018 00002003 lw               x0, 0(x0)            PA:00000000
                3081              10 0000001c 00002003 lw               x0, 0(x0)            PA:00000000
                3101              11 00000020 00002003 lw               x0, 0(x0)            PA:00000000
                3121              12 00000024 00002003 lw               x0, 0(x0)            PA:00000000
                3141              13 00000028 00002003 lw               x0, 0(x0)            PA:00000000
                3161              14 0000002c 00002003 lw               x0, 0(x0)            PA:00000000
                3181              15 00000030 00002003 lw               x0, 0(x0)            PA:00000000
                3201              16 00000034 00002003 lw               x0, 0(x0)            PA:00000000
                3221              17 00000038 00002003 lw               x0, 0(x0)            PA:00000000
                3241              18 0000003c 00002003 lw               x0, 0(x0)            PA:00000000
                3261              19 00000040 00002003 lw               x0, 0(x0)            PA:00000000
                3281              20 00000044 00002003 lw               x0, 0(x0)            PA:00000000
                3301              21 00000048 00002003 lw               x0, 0(x0)            PA:00000000
                3321              22 0000004c 00002003 lw               x0, 0(x0)            PA:00000000
                3341              23 00000050 00002003 lw               x0, 0(x0)            PA:00000000
                3361              24 00000054 00002003 lw               x0, 0(x0)            PA:00000000
                3381              25 00000058 00002003 lw               x0, 0(x0)            PA:00000000
                3401              26 0000005c 00002003 lw               x0, 0(x0)            PA:00000000
                3421              27 00000060 00002003 lw               x0, 0(x0)            PA:00000000
                3441              28 00000064 00002003 lw               x0, 0(x0)            PA:00000000
                3461              29 00000068 00002003 lw               x0, 0(x0)            PA:00000000
                3481              30 0000006c 00002003 lw               x0, 0(x0)            PA:00000000
                3501              31 00000070 00002003 lw               x0, 0(x0)            PA:00000000
                3521              32 00000074 00002003 lw               x0, 0(x0)            PA:00000000
                3541              33 00000078 00002003 lw               x0, 0(x0)            PA:00000000
                3561              34 0000007c 00002003 lw               x0, 0(x0)            PA:00000000
                3581              35 00000080 00002003 lw               x0, 0(x0)            PA:00000000
                3601              36 00000084 00002003 lw               x0, 0(x0)            PA:00000000
                3621              37 00000088 00002003 lw               x0, 0(x0)            PA:00000000
                3641              38 0000008c 00002003 lw               x0, 0(x0)            PA:00000000
                3661              39 00000090 00002003 lw               x0, 0(x0)            PA:00000000
                3681              40 00000094 00002003 lw               x0, 0(x0)            PA:00000000
                3701              41 00000098 00002003 lw               x0, 0(x0)            PA:00000000
                3721              42 0000009c 00002003 lw               x0, 0(x0)            PA:00000000
                3741              43 000000a0 00002003 lw               x0, 0(x0)            PA:00000000
                3761              44 000000a4 00002003 lw               x0, 0(x0)            PA:00000000
                3781              45 000000a8 00002003 lw               x0, 0(x0)            PA:00000000
                3801              46 000000ac e2f784ef jal              x9, -553426          x9=000000b0
                3841              48 fff78eda 04010613 addi             x12, x2, 64         x12=00000040  x2:00000000
                3861              49 fff78edc 00902023 sw               x9, 0(x0)            x9:000000b0  PA:00000000
                3881              50 fff78ee0 00902023 sw               x9, 0(x0)            x9:000000b0  PA:00000000
                3901              51 fff78ee4 00902023 sw               x9, 0(x0)            x9:000000b0  PA:00000000
                3921              52 fff78ee8 00902023 sw               x9, 0(x0)            x9:000000b0  PA:00000000
                3941              53 fff78eec 00902023 sw               x9, 0(x0)            x9:000000b0  PA:00000000
                3961              54 fff78ef0 00902023 sw               x9, 0(x0)            x9:000000b0  PA:00000000
                3981              55 fff78ef4 00902023 sw               x9, 0(x0)            x9:000000b0  PA:00000000
                4001              56 fff78ef8 00902023 sw               x9, 0(x0)            x9:000000b0  PA:00000000
                4021              57 fff78efc 00902023 sw               x9, 0(x0)            x9:000000b0  PA:00000000
                4041              58 fff78f00 00902023 sw               x9, 0(x0)            x9:000000b0  PA:00000000
                4061              59 fff78f04 00902023 sw               x9, 0(x0)            x9:000000b0  PA:00000000
                4081              60 fff78f08 00902023 sw               x9, 0(x0)            x9:000000b0  PA:00000000
                4101              61 fff78f0c 00902023 sw               x9, 0(x0)            x9:000000b0  PA:00000000
                4121              62 fff78f10 00902023 sw               x9, 0(x0)            x9:000000b0  PA:00000000
                4141              63 fff78f14 00902023 sw               x9, 0(x0)            x9:000000b0  PA:00000000
                4161              64 fff78f18 00902023 sw               x9, 0(x0)            x9:000000b0  PA:00000000
                4181              65 fff78f1c 00902023 sw               x9, 0(x0)            x9:000000b0  PA:00000000
                4201              66 fff78f20 00902023 sw               x9, 0(x0)            x9:000000b0
                4341               3 00000000 00902023 sw               x9, 0(x0)            x9:00000000  PA:00000000
                4361               4 00000004 00902023 sw               x9, 0(x0)            x9:00000000  PA:00000000
                4381               5 00000008 00902023 sw               x9, 0(x0)            x9:00000000  PA:00000000
                4401               6 0000000c 00002003 lw               x0, 0(x0)            PA:00000000
                4421               7 00000010 00002003 lw               x0, 0(x0)            PA:00000000
                4441               8 00000014 00002003 lw               x0, 0(x0)            PA:00000000
                4461               9 00000018 00002003 lw               x0, 0(x0)            PA:00000000
                4481              10 0000001c 00002003 lw               x0, 0(x0)            PA:00000000
                4501              11 00000020 00002003 lw               x0, 0(x0)            PA:00000000
                4521              12 00000024 00002003 lw               x0, 0(x0)            PA:00000000
                4541              13 00000028 00002003 lw               x0, 0(x0)            PA:00000000
                4561              14 0000002c 00002003 lw               x0, 0(x0)            PA:00000000
                4581              15 00000030 00002003 lw               x0, 0(x0)            PA:00000000
                4601              16 00000034 00002003 lw               x0, 0(x0)            PA:00000000
                4621              17 00000038 00002003 lw               x0, 0(x0)            PA:00000000
                4641              18 0000003c 00002003 lw               x0, 0(x0)            PA:00000000
                4661              19 00000040 00002003 lw               x0, 0(x0)            PA:00000000
                4681              20 00000044 00002003 lw               x0, 0(x0)            PA:00000000
                4701              21 00000048 00002003 lw               x0, 0(x0)            PA:00000000
                4721              22 0000004c 00002003 lw               x0, 0(x0)            PA:00000000
                4741              23 00000050 00002003 lw               x0, 0(x0)            PA:00000000
                4761              24 00000054 00002003 lw               x0, 0(x0)            PA:00000000
                4781              25 00000058 00002003 lw               x0, 0(x0)            PA:00000000
                4801              26 0000005c 00002003 lw               x0, 0(x0)            PA:00000000
                4821              27 00000060 00002003 lw               x0, 0(x0)            PA:00000000
                4841              28 00000064 00002003 lw               x0, 0(x0)            PA:00000000
                4861              29 00000068 00002003 lw               x0, 0(x0)            PA:00000000
                4881              30 0000006c 00002003 lw               x0, 0(x0)            PA:00000000
                4901              31 00000070 00002003 lw               x0, 0(x0)            PA:00000000
                4921              32 00000074 00002003 lw               x0, 0(x0)            PA:00000000
                4941              33 00000078 00002003 lw               x0, 0(x0)            PA:00000000
                4961              34 0000007c 00002003 lw               x0, 0(x0)            PA:00000000
                4981              35 00000080 00002003 lw               x0, 0(x0)            PA:00000000
                5001              36 00000084 00002003 lw               x0, 0(x0)            PA:00000000
                5021              37 00000088 00002003 lw               x0, 0(x0)            PA:00000000
                5041              38 0000008c 00002003 lw               x0, 0(x0)            PA:00000000
                5061              39 00000090 00002003 lw               x0, 0(x0)            PA:00000000
                5081              40 00000094 00002003 lw               x0, 0(x0)            PA:00000000
                5101              41 00000098 00002003 lw               x0, 0(x0)            PA:00000000
                5121              42 0000009c 00002003 lw               x0, 0(x0)            PA:00000000
                5141              43 000000a0 00002003 lw               x0, 0(x0)            PA:00000000
                5161              44 000000a4 00002003 lw               x0, 0(x0)            PA:00000000
                5181              45 000000a8 00002003 lw               x0, 0(x0)            PA:00000000
                5201              46 000000ac f4007aef jal              x21, -1018048       x21=000000b0
                5241              48 fff077ec 01502023 sw               x21, 0(x0)          x21:000000b0  PA:00000000
                5261              49 fff077f0 01502023 sw               x21, 0(x0)          x21:000000b0  PA:00000000
                5281              50 fff077f4 01502023 sw               x21, 0(x0)          x21:000000b0  PA:00000000
                5301              51 fff077f8 01502023 sw               x21, 0(x0)          x21:000000b0  PA:00000000
                5321              52 fff077fc 01502023 sw               x21, 0(x0)          x21:000000b0  PA:00000000
                5341              53 fff07800 01502023 sw               x21, 0(x0)          x21:000000b0  PA:00000000
                5361              54 fff07804 01502023 sw               x21, 0(x0)          x21:000000b0  PA:00000000
                5381              55 fff07808 01502023 sw               x21, 0(x0)          x21:000000b0  PA:00000000
                5401              56 fff0780c 01502023 sw               x21, 0(x0)          x21:000000b0  PA:00000000
                5421              57 fff07810 01502023 sw               x21, 0(x0)          x21:000000b0  PA:00000000
                5441              58 fff07814 01502023 sw               x21, 0(x0)          x21:000000b0  PA:00000000
                5461              59 fff07818 01502023 sw               x21, 0(x0)          x21:000000b0  PA:00000000
                5481              60 fff0781c 01502023 sw               x21, 0(x0)          x21:000000b0  PA:00000000
                5501              61 fff07820 01502023 sw               x21, 0(x0)          x21:000000b0  PA:00000000
                5521              62 fff07824 01502023 sw               x21, 0(x0)          x21:000000b0  PA:00000000
                5541              63 fff07828 01502023 sw               x21, 0(x0)          x21:000000b0  PA:00000000
                5561              64 fff0782c 01502023 sw               x21, 0(x0)          x21:000000b0  PA:00000000
                5581              65 fff07830 01502023 sw               x21, 0(x0)          x21:000000b0  PA:00000000
                5601              66 fff07834 01502023 sw               x21, 0(x0)          x21:000000b0
                5741               3 00000000 01502023 sw               x21, 0(x0)          x21:00000000  PA:00000000
                5761               4 00000004 01502023 sw               x21, 0(x0)          x21:00000000  PA:00000000
                5781               5 00000008 01502023 sw               x21, 0(x0)          x21:00000000  PA:00000000
                5801               6 0000000c 00002003 lw               x0, 0(x0)            PA:00000000
                5821               7 00000010 00002003 lw               x0, 0(x0)            PA:00000000
                5841               8 00000014 00002003 lw               x0, 0(x0)            PA:00000000
                5861               9 00000018 00002003 lw               x0, 0(x0)            PA:00000000
                5881              10 0000001c 00002003 lw               x0, 0(x0)            PA:00000000
                5901              11 00000020 00002003 lw               x0, 0(x0)            PA:00000000
                5921              12 00000024 00002003 lw               x0, 0(x0)            PA:00000000
                5941              13 00000028 00002003 lw               x0, 0(x0)            PA:00000000
                5961              14 0000002c 00002003 lw               x0, 0(x0)            PA:00000000
                5981              15 00000030 00002003 lw               x0, 0(x0)            PA:00000000
                6001              16 00000034 00002003 lw               x0, 0(x0)            PA:00000000
                6021              17 00000038 00002003 lw               x0, 0(x0)            PA:00000000
                6041              18 0000003c 00002003 lw               x0, 0(x0)            PA:00000000
                6061              19 00000040 00002003 lw               x0, 0(x0)            PA:00000000
                6081              20 00000044 00002003 lw               x0, 0(x0)            PA:00000000
                6101              21 00000048 00002003 lw               x0, 0(x0)            PA:00000000
                6121              22 0000004c 00002003 lw               x0, 0(x0)            PA:00000000
                6141              23 00000050 00002003 lw               x0, 0(x0)            PA:00000000
                6161              24 00000054 00002003 lw               x0, 0(x0)            PA:00000000
                6181              25 00000058 00002003 lw               x0, 0(x0)            PA:00000000
                6201              26 0000005c 00002003 lw               x0, 0(x0)            PA:00000000
                6221              27 00000060 00002003 lw               x0, 0(x0)            PA:00000000
                6241              28 00000064 00002003 lw               x0, 0(x0)            PA:00000000
                6261              29 00000068 00002003 lw               x0, 0(x0)            PA:00000000
                6281              30 0000006c 00002003 lw               x0, 0(x0)            PA:00000000
                6301              31 00000070 00002003 lw               x0, 0(x0)            PA:00000000
                6321              32 00000074 00002003 lw               x0, 0(x0)            PA:00000000
                6341              33 00000078 00002003 lw               x0, 0(x0)            PA:00000000
                6361              34 0000007c 00002003 lw               x0, 0(x0)            PA:00000000
                6381              35 00000080 00002003 lw               x0, 0(x0)            PA:00000000
                6401              36 00000084 00002003 lw               x0, 0(x0)            PA:00000000
                6421              37 00000088 00002003 lw               x0, 0(x0)            PA:00000000
                6441              38 0000008c 00002003 lw               x0, 0(x0)            PA:00000000
                6461              39 00000090 00002003 lw               x0, 0(x0)            PA:00000000
                6481              40 00000094 00002003 lw               x0, 0(x0)            PA:00000000
                6501              41 00000098 00002003 lw               x0, 0(x0)            PA:00000000
                6521              42 0000009c 00002003 lw               x0, 0(x0)            PA:00000000
                6541              43 000000a0 00002003 lw               x0, 0(x0)            PA:00000000
                6561              44 000000a4 00002003 lw               x0, 0(x0)            PA:00000000
                6581              45 000000a8 00002003 lw               x0, 0(x0)            PA:00000000
                6601              46 000000ac c03b22ef jal              x5, -316414          x5=000000b0
                6641              48 fffb2cae 00410613 addi             x12, x2, 4          x12=00000004  x2:00000000
                6661              49 fffb2cb0 00502023 sw               x5, 0(x0)            x5:000000b0  PA:00000000
                6681              50 fffb2cb4 00502023 sw               x5, 0(x0)            x5:000000b0  PA:00000000
                6701              51 fffb2cb8 00502023 sw               x5, 0(x0)            x5:000000b0  PA:00000000
                6721              52 fffb2cbc 00502023 sw               x5, 0(x0)            x5:000000b0  PA:00000000
                6741              53 fffb2cc0 00502023 sw               x5, 0(x0)            x5:000000b0  PA:00000000
                6761              54 fffb2cc4 00502023 sw               x5, 0(x0)            x5:000000b0  PA:00000000
                6781              55 fffb2cc8 00502023 sw               x5, 0(x0)            x5:000000b0  PA:00000000
                6801              56 fffb2ccc 00502023 sw               x5, 0(x0)            x5:000000b0  PA:00000000
                6821              57 fffb2cd0 00502023 sw               x5, 0(x0)            x5:000000b0  PA:00000000
                6841              58 fffb2cd4 00502023 sw               x5, 0(x0)            x5:000000b0  PA:00000000
                6861              59 fffb2cd8 00502023 sw               x5, 0(x0)            x5:000000b0  PA:00000000
                6881              60 fffb2cdc 00502023 sw               x5, 0(x0)            x5:000000b0  PA:00000000
                6901              61 fffb2ce0 00502023 sw               x5, 0(x0)            x5:000000b0  PA:00000000
                6921              62 fffb2ce4 00502023 sw               x5, 0(x0)            x5:000000b0  PA:00000000
                6941              63 fffb2ce8 00502023 sw               x5, 0(x0)            x5:000000b0  PA:00000000
                6961              64 fffb2cec 00502023 sw               x5, 0(x0)            x5:000000b0  PA:00000000
                6981              65 fffb2cf0 00502023 sw               x5, 0(x0)            x5:000000b0  PA:00000000
                7001              66 fffb2cf4 00502023 sw               x5, 0(x0)            x5:000000b0
                7141               3 00000000 00502023 sw               x5, 0(x0)            x5:00000000  PA:00000000
                7161               4 00000004 00502023 sw               x5, 0(x0)            x5:00000000  PA:00000000
                7181               5 00000008 00502023 sw               x5, 0(x0)            x5:00000000  PA:00000000
                7201               6 0000000c 00002003 lw               x0, 0(x0)            PA:00000000
                7221               7 00000010 00002003 lw               x0, 0(x0)            PA:00000000
                7241               8 00000014 00002003 lw               x0, 0(x0)            PA:00000000
                7261               9 00000018 00002003 lw               x0, 0(x0)            PA:00000000
                7281              10 0000001c 00002003 lw               x0, 0(x0)            PA:00000000
                7301              11 00000020 00002003 lw               x0, 0(x0)            PA:00000000
                7321              12 00000024 00002003 lw               x0, 0(x0)            PA:00000000
                7341              13 00000028 00002003 lw               x0, 0(x0)            PA:00000000
                7361              14 0000002c 00002003 lw               x0, 0(x0)            PA:00000000
                7381              15 00000030 00002003 lw               x0, 0(x0)            PA:00000000
                7401              16 00000034 00002003 lw               x0, 0(x0)            PA:00000000
                7421              17 00000038 00002003 lw               x0, 0(x0)            PA:00000000
                7441              18 0000003c 00002003 lw               x0, 0(x0)            PA:00000000
                7461              19 00000040 00002003 lw               x0, 0(x0)            PA:00000000
                7481              20 00000044 00002003 lw               x0, 0(x0)            PA:00000000
                7501              21 00000048 00002003 lw               x0, 0(x0)            PA:00000000
                7521              22 0000004c 00002003 lw               x0, 0(x0)            PA:00000000
                7541              23 00000050 00002003 lw               x0, 0(x0)            PA:00000000
                7561              24 00000054 00002003 lw               x0, 0(x0)            PA:00000000
                7581              25 00000058 00002003 lw               x0, 0(x0)            PA:00000000
                7601              26 0000005c 00002003 lw               x0, 0(x0)            PA:00000000
                7621              27 00000060 00002003 lw               x0, 0(x0)            PA:00000000
                7641              28 00000064 00002003 lw               x0, 0(x0)            PA:00000000
                7661              29 00000068 00002003 lw               x0, 0(x0)            PA:00000000
                7681              30 0000006c 00002003 lw               x0, 0(x0)            PA:00000000
                7701              31 00000070 00002003 lw               x0, 0(x0)            PA:00000000
                7721              32 00000074 00002003 lw               x0, 0(x0)            PA:00000000
                7741              33 00000078 00002003 lw               x0, 0(x0)            PA:00000000
                7761              34 0000007c 00002003 lw               x0, 0(x0)            PA:00000000
                7781              35 00000080 00002003 lw               x0, 0(x0)            PA:00000000
                7801              36 00000084 00002003 lw               x0, 0(x0)            PA:00000000
                7821              37 00000088 00002003 lw               x0, 0(x0)            PA:00000000
                7841              38 0000008c 00002003 lw               x0, 0(x0)            PA:00000000
                7861              39 00000090 00002003 lw               x0, 0(x0)            PA:00000000
                7881              40 00000094 00002003 lw               x0, 0(x0)            PA:00000000
                7901              41 00000098 00002003 lw               x0, 0(x0)            PA:00000000
                7921              42 0000009c 00002003 lw               x0, 0(x0)            PA:00000000
                7941              43 000000a0 00002003 lw               x0, 0(x0)            PA:00000000
                7961              44 000000a4 00002003 lw               x0, 0(x0)            PA:00000000
                7981              45 000000a8 00002003 lw               x0, 0(x0)            PA:00000000
                8001              46 000000ac 359fdd6f jal              x26, 1039192        x26=000000b0
                8041              48 000fdc04 01a02023 sw               x26, 0(x0)          x26:000000b0  PA:00000000
                8061              49 000fdc08 01a02023 sw               x26, 0(x0)          x26:000000b0  PA:00000000
                8081              50 000fdc0c 01a02023 sw               x26, 0(x0)          x26:000000b0  PA:00000000
                8101              51 000fdc10 01a02023 sw               x26, 0(x0)          x26:000000b0  PA:00000000
                8121              52 000fdc14 01a02023 sw               x26, 0(x0)          x26:000000b0  PA:00000000
                8141              53 000fdc18 01a02023 sw               x26, 0(x0)          x26:000000b0  PA:00000000
                8161              54 000fdc1c 01a02023 sw               x26, 0(x0)          x26:000000b0  PA:00000000
                8181              55 000fdc20 01a02023 sw               x26, 0(x0)          x26:000000b0  PA:00000000
                8201              56 000fdc24 01a02023 sw               x26, 0(x0)          x26:000000b0  PA:00000000
                8221              57 000fdc28 01a02023 sw               x26, 0(x0)          x26:000000b0  PA:00000000
                8241              58 000fdc2c 01a02023 sw               x26, 0(x0)          x26:000000b0  PA:00000000
                8261              59 000fdc30 01a02023 sw               x26, 0(x0)          x26:000000b0  PA:00000000
                8281              60 000fdc34 01a02023 sw               x26, 0(x0)          x26:000000b0  PA:00000000
                8301              61 000fdc38 01a02023 sw               x26, 0(x0)          x26:000000b0  PA:00000000
                8321              62 000fdc3c 01a02023 sw               x26, 0(x0)          x26:000000b0  PA:00000000
                8341              63 000fdc40 01a02023 sw               x26, 0(x0)          x26:000000b0  PA:00000000
                8361              64 000fdc44 01a02023 sw               x26, 0(x0)          x26:000000b0  PA:00000000
                8381              65 000fdc48 01a02023 sw               x26, 0(x0)          x26:000000b0  PA:00000000
                8401              66 000fdc4c 01a02023 sw               x26, 0(x0)          x26:000000b0
                8541               3 00000000 01a02023 sw               x26, 0(x0)          x26:00000000  PA:00000000
                8561               4 00000004 01a02023 sw               x26, 0(x0)          x26:00000000  PA:00000000
                8581               5 00000008 01a02023 sw               x26, 0(x0)          x26:00000000  PA:00000000
                8601               6 0000000c 00002003 lw               x0, 0(x0)            PA:00000000
                8621               7 00000010 00002003 lw               x0, 0(x0)            PA:00000000
                8641               8 00000014 00002003 lw               x0, 0(x0)            PA:00000000
                8661               9 00000018 00002003 lw               x0, 0(x0)            PA:00000000
                8681              10 0000001c 00002003 lw               x0, 0(x0)            PA:00000000
                8701              11 00000020 00002003 lw               x0, 0(x0)            PA:00000000
                8721              12 00000024 00002003 lw               x0, 0(x0)            PA:00000000
                8741              13 00000028 00002003 lw               x0, 0(x0)            PA:00000000
                8761              14 0000002c 00002003 lw               x0, 0(x0)            PA:00000000
                8781              15 00000030 00002003 lw               x0, 0(x0)            PA:00000000
                8801              16 00000034 00002003 lw               x0, 0(x0)            PA:00000000
                8821              17 00000038 00002003 lw               x0, 0(x0)            PA:00000000
                8841              18 0000003c 00002003 lw               x0, 0(x0)            PA:00000000
                8861              19 00000040 00002003 lw               x0, 0(x0)            PA:00000000
                8881              20 00000044 00002003 lw               x0, 0(x0)            PA:00000000
                8901              21 00000048 00002003 lw               x0, 0(x0)            PA:00000000
                8921              22 0000004c 00002003 lw               x0, 0(x0)            PA:00000000
                8941              23 00000050 00002003 lw               x0, 0(x0)            PA:00000000
                8961              24 00000054 00002003 lw               x0, 0(x0)            PA:00000000
                8981              25 00000058 00002003 lw               x0, 0(x0)            PA:00000000
                9001              26 0000005c 00002003 lw               x0, 0(x0)            PA:00000000
                9021              27 00000060 00002003 lw               x0, 0(x0)            PA:00000000
                9041              28 00000064 00002003 lw               x0, 0(x0)            PA:00000000
                9061              29 00000068 00002003 lw               x0, 0(x0)            PA:00000000
                9081              30 0000006c 00002003 lw               x0, 0(x0)            PA:00000000
                9101              31 00000070 00002003 lw               x0, 0(x0)            PA:00000000
                9121              32 00000074 00002003 lw               x0, 0(x0)            PA:00000000
                9141              33 00000078 00002003 lw               x0, 0(x0)            PA:00000000
                9161              34 0000007c 00002003 lw               x0, 0(x0)            PA:00000000
                9181              35 00000080 00002003 lw               x0, 0(x0)            PA:00000000
                9201              36 00000084 00002003 lw               x0, 0(x0)            PA:00000000
                9221              37 00000088 00002003 lw               x0, 0(x0)            PA:00000000
                9241              38 0000008c 00002003 lw               x0, 0(x0)            PA:00000000
                9261              39 00000090 00002003 lw               x0, 0(x0)            PA:00000000
                9281              40 00000094 00002003 lw               x0, 0(x0)            PA:00000000
                9301              41 00000098 00002003 lw               x0, 0(x0)            PA:00000000
                9321              42 0000009c 00002003 lw               x0, 0(x0)            PA:00000000
                9341              43 000000a0 00002003 lw               x0, 0(x0)            PA:00000000
                9361              44 000000a4 00002003 lw               x0, 0(x0)            PA:00000000
                9381              45 000000a8 00002003 lw               x0, 0(x0)            PA:00000000
                9401              46 000000ac e5730aef jal              x21, -848298        x21=000000b0
                9441              48 fff30f02 08410613 addi             x12, x2, 132        x12=00000084  x2:00000000
                9461              49 fff30f04 01502023 sw               x21, 0(x0)          x21:000000b0  PA:00000000
                9481              50 fff30f08 01502023 sw               x21, 0(x0)          x21:000000b0  PA:00000000
                9501              51 fff30f0c 01502023 sw               x21, 0(x0)          x21:000000b0  PA:00000000
                9521              52 fff30f10 01502023 sw               x21, 0(x0)          x21:000000b0  PA:00000000
                9541              53 fff30f14 01502023 sw               x21, 0(x0)          x21:000000b0  PA:00000000
                9561              54 fff30f18 01502023 sw               x21, 0(x0)          x21:000000b0  PA:00000000
                9581              55 fff30f1c 01502023 sw               x21, 0(x0)          x21:000000b0  PA:00000000
                9601              56 fff30f20 01502023 sw               x21, 0(x0)          x21:000000b0  PA:00000000
                9621              57 fff30f24 01502023 sw               x21, 0(x0)          x21:000000b0  PA:00000000
                9641              58 fff30f28 01502023 sw               x21, 0(x0)          x21:000000b0  PA:00000000
                9661              59 fff30f2c 01502023 sw               x21, 0(x0)          x21:000000b0  PA:00000000
                9681              60 fff30f30 01502023 sw               x21, 0(x0)          x21:000000b0  PA:00000000
                9701              61 fff30f34 01502023 sw               x21, 0(x0)          x21:000000b0  PA:00000000
                9721              62 fff30f38 01502023 sw               x21, 0(x0)          x21:000000b0  PA:00000000
                9741              63 fff30f3c 01502023 sw               x21, 0(x0)          x21:000000b0  PA:00000000
                9761              64 fff30f40 01502023 sw               x21, 0(x0)          x21:000000b0  PA:00000000
                9781              65 fff30f44 01502023 sw               x21, 0(x0)          x21:000000b0  PA:00000000
                9801              66 fff30f48 01502023 sw               x21, 0(x0)          x21:000000b0
                9941               3 00000000 01502023 sw               x21, 0(x0)          x21:00000000  PA:00000000
                9961               4 00000004 01502023 sw               x21, 0(x0)          x21:00000000  PA:00000000
                9981               5 00000008 01502023 sw               x21, 0(x0)          x21:00000000  PA:00000000
               10001               6 0000000c 00002003 lw               x0, 0(x0)            PA:00000000
               10021               7 00000010 00002003 lw               x0, 0(x0)            PA:00000000
               10041               8 00000014 00002003 lw               x0, 0(x0)            PA:00000000
               10061               9 00000018 00002003 lw               x0, 0(x0)            PA:00000000
               10081              10 0000001c 00002003 lw               x0, 0(x0)            PA:00000000
               10101              11 00000020 00002003 lw               x0, 0(x0)            PA:00000000
               10121              12 00000024 00002003 lw               x0, 0(x0)            PA:00000000
               10141              13 00000028 00002003 lw               x0, 0(x0)            PA:00000000
               10161              14 0000002c 00002003 lw               x0, 0(x0)            PA:00000000
               10181              15 00000030 00002003 lw               x0, 0(x0)            PA:00000000
               10201              16 00000034 00002003 lw               x0, 0(x0)            PA:00000000
               10221              17 00000038 00002003 lw               x0, 0(x0)            PA:00000000
               10241              18 0000003c 00002003 lw               x0, 0(x0)            PA:00000000
               10261              19 00000040 00002003 lw               x0, 0(x0)            PA:00000000
               10281              20 00000044 00002003 lw               x0, 0(x0)            PA:00000000
               10301              21 00000048 00002003 lw               x0, 0(x0)            PA:00000000
               10321              22 0000004c 00002003 lw               x0, 0(x0)            PA:00000000
               10341              23 00000050 00002003 lw               x0, 0(x0)            PA:00000000
               10361              24 00000054 00002003 lw               x0, 0(x0)            PA:00000000
               10381              25 00000058 00002003 lw               x0, 0(x0)            PA:00000000
               10401              26 0000005c 00002003 lw               x0, 0(x0)            PA:00000000
               10421              27 00000060 00002003 lw               x0, 0(x0)            PA:00000000
               10441              28 00000064 00002003 lw               x0, 0(x0)            PA:00000000
               10461              29 00000068 00002003 lw               x0, 0(x0)            PA:00000000
               10481              30 0000006c 00002003 lw               x0, 0(x0)            PA:00000000
               10501              31 00000070 00002003 lw               x0, 0(x0)            PA:00000000
               10521              32 00000074 00002003 lw               x0, 0(x0)            PA:00000000
               10541              33 00000078 00002003 lw               x0, 0(x0)            PA:00000000
               10561              34 0000007c 00002003 lw               x0, 0(x0)            PA:00000000
               10581              35 00000080 00002003 lw               x0, 0(x0)            PA:00000000
               10601              36 00000084 00002003 lw               x0, 0(x0)            PA:00000000
               10621              37 00000088 00002003 lw               x0, 0(x0)            PA:00000000
               10641              38 0000008c 00002003 lw               x0, 0(x0)            PA:00000000
               10661              39 00000090 00002003 lw               x0, 0(x0)            PA:00000000
               10681              40 00000094 00002003 lw               x0, 0(x0)            PA:00000000
               10701              41 00000098 00002003 lw               x0, 0(x0)            PA:00000000
               10721              42 0000009c 00002003 lw               x0, 0(x0)            PA:00000000
               10741              43 000000a0 00002003 lw               x0, 0(x0)            PA:00000000
               10761              44 000000a4 00002003 lw               x0, 0(x0)            PA:00000000
               10781              45 000000a8 00002003 lw               x0, 0(x0)            PA:00000000
               10801              46 000000ac 75c50def jal              x27, 329564         x27=000000b0
               10841              48 00050808 01b02023 sw               x27, 0(x0)          x27:000000b0  PA:00000000
               10861              49 0005080c 01b02023 sw               x27, 0(x0)          x27:000000b0  PA:00000000
               10881              50 00050810 01b02023 sw               x27, 0(x0)          x27:000000b0  PA:00000000
               10901              51 00050814 01b02023 sw               x27, 0(x0)          x27:000000b0  PA:00000000
               10921              52 00050818 01b02023 sw               x27, 0(x0)          x27:000000b0  PA:00000000
               10941              53 0005081c 01b02023 sw               x27, 0(x0)          x27:000000b0  PA:00000000
               10961              54 00050820 01b02023 sw               x27, 0(x0)          x27:000000b0  PA:00000000
               10981              55 00050824 01b02023 sw               x27, 0(x0)          x27:000000b0  PA:00000000
               11001              56 00050828 01b02023 sw               x27, 0(x0)          x27:000000b0  PA:00000000
               11021              57 0005082c 01b02023 sw               x27, 0(x0)          x27:000000b0  PA:00000000
               11041              58 00050830 01b02023 sw               x27, 0(x0)          x27:000000b0  PA:00000000
               11061              59 00050834 01b02023 sw               x27, 0(x0)          x27:000000b0  PA:00000000
               11081              60 00050838 01b02023 sw               x27, 0(x0)          x27:000000b0  PA:00000000
               11101              61 0005083c 01b02023 sw               x27, 0(x0)          x27:000000b0  PA:00000000
               11121              62 00050840 01b02023 sw               x27, 0(x0)          x27:000000b0  PA:00000000
               11141              63 00050844 01b02023 sw               x27, 0(x0)          x27:000000b0  PA:00000000
               11161              64 00050848 01b02023 sw               x27, 0(x0)          x27:000000b0  PA:00000000
               11181              65 0005084c 01b02023 sw               x27, 0(x0)          x27:000000b0  PA:00000000
               11201              66 00050850 01b02023 sw               x27, 0(x0)          x27:000000b0
               11341               3 00000000 01b02023 sw               x27, 0(x0)          x27:00000000  PA:00000000
               11361               4 00000004 01b02023 sw               x27, 0(x0)          x27:00000000  PA:00000000
               11381               5 00000008 01b02023 sw               x27, 0(x0)          x27:00000000  PA:00000000
               11401               6 0000000c 00002003 lw               x0, 0(x0)            PA:00000000
               11421               7 00000010 00002003 lw               x0, 0(x0)            PA:00000000
               11441               8 00000014 00002003 lw               x0, 0(x0)            PA:00000000
               11461               9 00000018 00002003 lw               x0, 0(x0)            PA:00000000
               11481              10 0000001c 00002003 lw               x0, 0(x0)            PA:00000000
               11501              11 00000020 00002003 lw               x0, 0(x0)            PA:00000000
               11521              12 00000024 00002003 lw               x0, 0(x0)            PA:00000000
               11541              13 00000028 00002003 lw               x0, 0(x0)            PA:00000000
               11561              14 0000002c 00002003 lw               x0, 0(x0)            PA:00000000
               11581              15 00000030 00002003 lw               x0, 0(x0)            PA:00000000
               11601              16 00000034 00002003 lw               x0, 0(x0)            PA:00000000
               11621              17 00000038 00002003 lw               x0, 0(x0)            PA:00000000
               11641              18 0000003c 00002003 lw               x0, 0(x0)            PA:00000000
               11661              19 00000040 00002003 lw               x0, 0(x0)            PA:00000000
               11681              20 00000044 00002003 lw               x0, 0(x0)            PA:00000000
               11701              21 00000048 00002003 lw               x0, 0(x0)            PA:00000000
               11721              22 0000004c 00002003 lw               x0, 0(x0)            PA:00000000
               11741              23 00000050 00002003 lw               x0, 0(x0)            PA:00000000
               11761              24 00000054 00002003 lw               x0, 0(x0)            PA:00000000
               11781              25 00000058 00002003 lw               x0, 0(x0)            PA:00000000
               11801              26 0000005c 00002003 lw               x0, 0(x0)            PA:00000000
               11821              27 00000060 00002003 lw               x0, 0(x0)            PA:00000000
               11841              28 00000064 00002003 lw               x0, 0(x0)            PA:00000000
               11861              29 00000068 00002003 lw               x0, 0(x0)            PA:00000000
               11881              30 0000006c 00002003 lw               x0, 0(x0)            PA:00000000
               11901              31 00000070 00002003 lw               x0, 0(x0)            PA:00000000
               11921              32 00000074 00002003 lw               x0, 0(x0)            PA:00000000
               11941              33 00000078 00002003 lw               x0, 0(x0)            PA:00000000
               11961              34 0000007c 00002003 lw               x0, 0(x0)            PA:00000000
               11981              35 00000080 00002003 lw               x0, 0(x0)            PA:00000000
               12001              36 00000084 00002003 lw               x0, 0(x0)            PA:00000000
               12021              37 00000088 00002003 lw               x0, 0(x0)            PA:00000000
               12041              38 0000008c 00002003 lw               x0, 0(x0)            PA:00000000
               12061              39 00000090 00002003 lw               x0, 0(x0)            PA:00000000
               12081              40 00000094 00002003 lw               x0, 0(x0)            PA:00000000
               12101              41 00000098 00002003 lw               x0, 0(x0)            PA:00000000
               12121              42 0000009c 00002003 lw               x0, 0(x0)            PA:00000000
               12141              43 000000a0 00002003 lw               x0, 0(x0)            PA:00000000
               12161              44 000000a4 00002003 lw               x0, 0(x0)            PA:00000000
               12181              45 000000a8 00002003 lw               x0, 0(x0)            PA:00000000
               12201              46 000000ac 42f241ef jal              x3, 150574           x3=000000b0
               12241              48 00024cda 00810613 addi             x12, x2, 8          x12=00000008  x2:00000000
               12261              49 00024cdc 00302023 sw               x3, 0(x0)            x3:000000b0  PA:00000000
               12281              50 00024ce0 00302023 sw               x3, 0(x0)            x3:000000b0  PA:00000000
               12301              51 00024ce4 00302023 sw               x3, 0(x0)            x3:000000b0  PA:00000000
               12321              52 00024ce8 00302023 sw               x3, 0(x0)            x3:000000b0  PA:00000000
               12341              53 00024cec 00302023 sw               x3, 0(x0)            x3:000000b0  PA:00000000
               12361              54 00024cf0 00302023 sw               x3, 0(x0)            x3:000000b0  PA:00000000
               12381              55 00024cf4 00302023 sw               x3, 0(x0)            x3:000000b0  PA:00000000
               12401              56 00024cf8 00302023 sw               x3, 0(x0)            x3:000000b0  PA:00000000
               12421              57 00024cfc 00302023 sw               x3, 0(x0)            x3:000000b0  PA:00000000
               12441              58 00024d00 00302023 sw               x3, 0(x0)            x3:000000b0  PA:00000000
               12461              59 00024d04 00302023 sw               x3, 0(x0)            x3:000000b0  PA:00000000
               12481              60 00024d08 00302023 sw               x3, 0(x0)            x3:000000b0  PA:00000000
               12501              61 00024d0c 00302023 sw               x3, 0(x0)            x3:000000b0  PA:00000000
               12521              62 00024d10 00302023 sw               x3, 0(x0)            x3:000000b0  PA:00000000
               12541              63 00024d14 00302023 sw               x3, 0(x0)            x3:000000b0  PA:00000000
               12561              64 00024d18 00302023 sw               x3, 0(x0)            x3:000000b0  PA:00000000
               12581              65 00024d1c 00302023 sw               x3, 0(x0)            x3:000000b0  PA:00000000
               12601              66 00024d20 00302023 sw               x3, 0(x0)            x3:000000b0
               12741               3 00000000 00302023 sw               x3, 0(x0)            x3:00000000  PA:00000000
               12761               4 00000004 00302023 sw               x3, 0(x0)            x3:00000000  PA:00000000
               12781               5 00000008 00302023 sw               x3, 0(x0)            x3:00000000  PA:00000000
               12801               6 0000000c 00002003 lw               x0, 0(x0)            PA:00000000
               12821               7 00000010 00002003 lw               x0, 0(x0)            PA:00000000
               12841               8 00000014 00002003 lw               x0, 0(x0)            PA:00000000
               12861               9 00000018 00002003 lw               x0, 0(x0)            PA:00000000
               12881              10 0000001c 00002003 lw               x0, 0(x0)            PA:00000000
               12901              11 00000020 00002003 lw               x0, 0(x0)            PA:00000000
               12921              12 00000024 00002003 lw               x0, 0(x0)            PA:00000000
               12941              13 00000028 00002003 lw               x0, 0(x0)            PA:00000000
               12961              14 0000002c 00002003 lw               x0, 0(x0)            PA:00000000
               12981              15 00000030 00002003 lw               x0, 0(x0)            PA:00000000
               13001              16 00000034 00002003 lw               x0, 0(x0)            PA:00000000
               13021              17 00000038 00002003 lw               x0, 0(x0)            PA:00000000
               13041              18 0000003c 00002003 lw               x0, 0(x0)            PA:00000000
               13061              19 00000040 00002003 lw               x0, 0(x0)            PA:00000000
               13081              20 00000044 00002003 lw               x0, 0(x0)            PA:00000000
               13101              21 00000048 00002003 lw               x0, 0(x0)            PA:00000000
               13121              22 0000004c 00002003 lw               x0, 0(x0)            PA:00000000
               13141              23 00000050 00002003 lw               x0, 0(x0)            PA:00000000
               13161              24 00000054 00002003 lw               x0, 0(x0)            PA:00000000
               13181              25 00000058 00002003 lw               x0, 0(x0)            PA:00000000
               13201              26 0000005c 00002003 lw               x0, 0(x0)            PA:00000000
               13221              27 00000060 00002003 lw               x0, 0(x0)            PA:00000000
               13241              28 00000064 00002003 lw               x0, 0(x0)            PA:00000000
               13261              29 00000068 00002003 lw               x0, 0(x0)            PA:00000000
               13281              30 0000006c 00002003 lw               x0, 0(x0)            PA:00000000
               13301              31 00000070 00002003 lw               x0, 0(x0)            PA:00000000
               13321              32 00000074 00002003 lw               x0, 0(x0)            PA:00000000
               13341              33 00000078 00002003 lw               x0, 0(x0)            PA:00000000
               13361              34 0000007c 00002003 lw               x0, 0(x0)            PA:00000000
               13381              35 00000080 00002003 lw               x0, 0(x0)            PA:00000000
               13401              36 00000084 00002003 lw               x0, 0(x0)            PA:00000000
               13421              37 00000088 00002003 lw               x0, 0(x0)            PA:00000000
               13441              38 0000008c 00002003 lw               x0, 0(x0)            PA:00000000
               13461              39 00000090 00002003 lw               x0, 0(x0)            PA:00000000
               13481              40 00000094 00002003 lw               x0, 0(x0)            PA:00000000
               13501              41 00000098 00002003 lw               x0, 0(x0)            PA:00000000
               13521              42 0000009c 00002003 lw               x0, 0(x0)            PA:00000000
               13541              43 000000a0 00002003 lw               x0, 0(x0)            PA:00000000
               13561              44 000000a4 00002003 lw               x0, 0(x0)            PA:00000000
               13581              45 000000a8 00002003 lw               x0, 0(x0)            PA:00000000
               13601              46 000000ac 3123076f jal              x14, 197394         x14=000000b0
               13641              48 000303be 04c10413 addi             x8, x2, 76           x8=0000004c  x2:00000000
               13661              49 000303c0 00e02023 sw               x14, 0(x0)          x14:000000b0  PA:00000000
               13681              50 000303c4 00e02023 sw               x14, 0(x0)          x14:000000b0  PA:00000000
               13701              51 000303c8 00e02023 sw               x14, 0(x0)          x14:000000b0  PA:00000000
               13721              52 000303cc 00e02023 sw               x14, 0(x0)          x14:000000b0  PA:00000000
               13741              53 000303d0 00e02023 sw               x14, 0(x0)          x14:000000b0  PA:00000000
               13761              54 000303d4 00e02023 sw               x14, 0(x0)          x14:000000b0  PA:00000000
               13781              55 000303d8 00e02023 sw               x14, 0(x0)          x14:000000b0  PA:00000000
               13801              56 000303dc 00e02023 sw               x14, 0(x0)          x14:000000b0  PA:00000000
               13821              57 000303e0 00e02023 sw               x14, 0(x0)          x14:000000b0  PA:00000000
               13841              58 000303e4 00e02023 sw               x14, 0(x0)          x14:000000b0  PA:00000000
               13861              59 000303e8 00e02023 sw               x14, 0(x0)          x14:000000b0  PA:00000000
               13881              60 000303ec 00e02023 sw               x14, 0(x0)          x14:000000b0  PA:00000000
               13901              61 000303f0 00e02023 sw               x14, 0(x0)          x14:000000b0  PA:00000000
               13921              62 000303f4 00e02023 sw               x14, 0(x0)          x14:000000b0  PA:00000000
               13941              63 000303f8 00e02023 sw               x14, 0(x0)          x14:000000b0  PA:00000000
